; Function Attrs: nounwind uwtable
define range(i32 -22, 1) i32 @ff_amf_get_string(ptr noundef captures(none) %0, ptr noundef writeonly captures(none) %1, i32 noundef %2, ptr noundef writeonly captures(none) %3) local_unnamed_addr #5 {
  %5 = getelementptr inbounds nuw i8, ptr %0, i64 8
  %6 = load ptr, ptr %5, align 8, !tbaa !10
  %7 = load ptr, ptr %0, align 8, !tbaa !12
  %8 = ptrtoint ptr %6 to i64
  %9 = ptrtoint ptr %7 to i64
  %10 = sub i64 %8, %9
  %11 = icmp slt i64 %10, 2
  br i1 %11, label %12, label %13

12:                                               ; preds = %4
  store ptr %6, ptr %0, align 8, !tbaa !12
  br label %bytestream2_get_be16.exit

13:                                               ; preds = %4
  %14 = getelementptr inbounds nuw i8, ptr %7, i64 2
  store ptr %14, ptr %0, align 8, !tbaa !4
  %15 = load i16, ptr %7, align 1, !tbaa !9
  %16 = tail call i16 @llvm.bswap.i16(i16 %15)
  %17 = zext i16 %16 to i32
  br label %bytestream2_get_be16.exit

bytestream2_get_be16.exit:                        ; preds = %12, %13
  %18 = phi ptr [ %6, %12 ], [ %14, %13 ]
  %.0.i = phi i32 [ 0, %12 ], [ %17, %13 ]
  %.not = icmp slt i32 %.0.i, %2
  br i1 %.not, label %19, label %33

19:                                               ; preds = %bytestream2_get_be16.exit
  %20 = ptrtoint ptr %18 to i64
  %21 = sub i64 %8, %20
  %22 = zext nneg i32 %.0.i to i64
  %23 = tail call i64 @llvm.smin.i64(i64 %21, i64 %22)
  %24 = trunc i64 %23 to i32
  %25 = and i64 %23, 4294967295
  tail call void @llvm.memcpy.p0.p0.i64(ptr align 1 %1, ptr align 1 %18, i64 %25, i1 false)
  %26 = load ptr, ptr %0, align 8, !tbaa !12
  %27 = getelementptr inbounds nuw i8, ptr %26, i64 %25
  store ptr %27, ptr %0, align 8, !tbaa !12
  %.not15 = icmp eq i32 %.0.i, %24
  br i1 %.not15, label %29, label %28

28:                                               ; preds = %19
  tail call void (ptr, i32, ptr, ...) @av_log(ptr noundef null, i32 noundef 24, ptr noundef nonnull @.str) #16
  br label %29

29:                                               ; preds = %28, %19
  %sext = shl i64 %23, 32
  %30 = ashr exact i64 %sext, 32
  %31 = getelementptr inbounds i8, ptr %1, i64 %30
  store i8 0, ptr %31, align 1, !tbaa !9
  %32 = tail call i32 @llvm.smin.i32(i32 %.0.i, i32 %24)
  store i32 %32, ptr %3, align 4, !tbaa !15
  br label %33

33:                                               ; preds = %bytestream2_get_be16.exit, %29
  %.0 = phi i32 [ 0, %29 ], [ -22, %bytestream2_get_be16.exit ]
  ret i32 %.0
}